(imvainfos
mvainfo
p0
(dp1
S'MVAname'
p2
S'RTight_ZZbb_oct4'
p3
sS'weightfilepath'
p4
S'/gpfs/ddn/cms/user/cvernier/WZAnalysis/CMSSW_5_3_3_patch2/src/env6/sys/MVAout/'
p5
sS'spectators'
p6
(lp7
sS'MVAtype'
p8
S'BDT'
p9
sS'vars'
p10
(lp11
S'H.mass'
p12
aS'H.pt'
p13
aS'HVdPhi'
p14
aS'V.mass'
p15
aS'V.pt'
p16
aS'H.dEta'
p17
aS'max(hJet_csv[0],hJet_csv[1])'
p18
aS'min(hJet_csv[0],hJet_csv[1])'
p19
aS'Sum$(aJet_pt>20.&abs(aJet_eta)<2.4)'
p20
aS'H.dR'
p21
aS'hJet_pt[0]'
p22
aS'hJet_pt[1]'
p23
aS'deltaPullAngle'
p24
aS'deltaPullAngle2'
p25
aS'HVMass_Reg'
p26
asS'MVAsettings'
p27
S'!H:!V:NTrees=500:nEventsMin=300:MaxDepth=3:BoostType=AdaBoost:AdaBoostBeta=0.15:SeparationType=MisClassificationError:nCuts=30:PruneMethod=CostComplexity:PruneBeforeBoost=False:PruneStrength=3'
p28
sS'weightfiles'
p29
S''
p30
sS'sigs'
p31
(lp32
sS'factoryname'
p33
S'MVA'
p34
sS'factorysettings'
p35
S'!V:!Silent:Color:DrawProgressBar:AnalysisType=Classification:Transformations=I'
p36
sS'bkgs'
p37
(lp38
sS'path'
p39
S'/gpfs/ddn/cms/user/cvernier/WZAnalysis/CMSSW_5_3_3_patch2/src/env6/sys/'
p40
sS'varset'
p41
S'treeVarsSystMass'
p42
sS'comment'
p43
g30
sb.
