(imyutils.mvainfos
mvainfo
p0
(dp1
S'MVAname'
p2
S'RMed_ZH135_janAngularOnly'
p3
sS'weightfilepath'
p4
S'/shome/bortigno//VHbbAnalysis/finalPaper_v2.3//data/'
p5
sS'spectators'
p6
(lp7
sS'MVAtype'
p8
S'BDT'
p9
sS'vars'
p10
(lp11
S'H.mass'
p12
aS'H.pt'
p13
aS'HVdPhi'
p14
aS'V.mass'
p15
aS'V.pt'
p16
aS'H.dEta'
p17
aS'max(hJet_csv[0],hJet_csv[1])'
p18
aS'min(hJet_csv[0],hJet_csv[1])'
p19
aS'Sum$(aJet_pt>20.&abs(aJet_eta)<2.4)'
p20
aS'H.dR'
p21
aS'hJet_pt[0]'
p22
aS'hJet_pt[1]'
p23
aS'deltaPullAngle'
p24
aS'deltaPullAngle2'
p25
aS'angleHB'
p26
aS'angleLZ'
p27
aS'angleZZS'
p28
aS'HVMass_Reg'
p29
asS'MVAsettings'
p30
S'!H:!V:NTrees=400:nEventsMin=300:MaxDepth=2:BoostType=AdaBoost:AdaBoostBeta=0.12:SeparationType=MisClassificationError:nCuts=25:PruneMethod=NoPruning'
p31
sS'weightfiles'
p32
S''
p33
sS'sigs'
p34
(lp35
sS'factoryname'
p36
S'MVA'
p37
sS'factorysettings'
p38
S'!V:Silent:Color:!DrawProgressBar:AnalysisType=Classification:Transformations=I'
p39
sS'bkgs'
p40
(lp41
sS'path'
p42
S'gsidcap://t3se01.psi.ch:22128//pnfs/psi.ch/cms/trivcat/store/HBB_EDMNtuple/V42/Mar13//env/sysAllSyst/'
p43
sS'varset'
p44
S'treeVarsAngularOnly'
p45
sS'comment'
p46
g33
sb.