(imvainfos
mvainfo
p0
(dp1
S'MVAname'
p2
S'RTight_ZH125_oct'
p3
sS'weightfilepath'
p4
S'/Users/peller//UserCode/VHbb//data/'
p5
sS'spectators'
p6
(lp7
sS'MVAtype'
p8
S'BDT'
p9
sS'vars'
p10
(lp11
S'H.mass'
p12
aS'H.pt'
p13
aS'HVdPhi'
p14
aS'V.mass'
p15
aS'V.pt'
p16
aS'H.dEta'
p17
aS'max(hJet_csv[0],hJet_csv[1])'
p18
aS'min(hJet_csv[0],hJet_csv[1])'
p19
aS'Sum$(aJet_pt>20.&abs(aJet_eta)<2.4)'
p20
aS'H.dR'
p21
aS'hJet_pt[0]'
p22
aS'hJet_pt[1]'
p23
aS'deltaPullAngle'
p24
aS'deltaPullAngle2'
p25
asS'MVAsettings'
p26
S'!H:!V:NTrees=400:nEventsMin=500:MaxDepth=3:BoostType=AdaBoost:AdaBoostBeta=0.1:SeparationType=MisClassificationError:nCuts=25:PruneMethod=NoPruning'
p27
sS'weightfiles'
p28
S''
p29
sS'sigs'
p30
(lp31
sS'factoryname'
p32
S'MVA'
p33
sS'factorysettings'
p34
S'!V:!Silent:Color:DrawProgressBar:AnalysisType=Classification:Transformations=I'
p35
sS'bkgs'
p36
(lp37
sS'path'
p38
S'/scratch/HCPV42//env/sys/'
p39
sS'varset'
p40
S'treeVarsICHEP'
p41
sS'comment'
p42
g29
sb.