(lp0
(isamplesinfo
sample
p1
(dp2
S'comment'
p3
S'- inclusive samples nov10'
p4
sS'Training'
p5
S''
p6
sS'name'
p7
S'Zee'
p8
sS'tree'
p9
S'tree'
p10
sS'weightfiles'
p11
g6
sS'SYS'
p12
(lp13
S'Nominal'
p14
asS'MVA'
p15
g6
sS'prefix'
p16
S'DiJetPt_'
p17
sS'split'
p18
F1.0
sS'lumi'
p19
I4700
sS'path'
p20
S'/scratch/nov10_inclusive/Z/sys'
p21
sS'xsec'
p22
F0.0
sS'type'
p23
S'DATA'
p24
sS'treecut'
p25
S'((EVENT.run<173198 && (triggerFlags[0]>0 || triggerFlags[13]>0 || triggerFlags[14]>0 || triggerFlags[20]>0 || triggerFlags[21]>0)) || (EVENT.run>=173198 && EVENT.run<175832  && (triggerFlags[13]>0 ||triggerFlags[14]>0 || triggerFlags[22]>0 || triggerFlags[23]>0))|| (EVENT.run>=175832 && EVENT.run<178390 && (triggerFlags[13]>0 ||triggerFlags[14]>0 ||triggerFlags[15]>0 || triggerFlags[21]>0 || triggerFlags[22]>0 || triggerFlags[23]>0)) || (EVENT.run>=178390 && (triggerFlags[14]>0 ||triggerFlags[15]>0 || triggerFlags[21]>0 || triggerFlags[22]>0 || triggerFlags[23]>0 || triggerFlags[24]>0 || triggerFlags[25]>0 || triggerFlags[26]>0 || triggerFlags[27]>0)))'
p26
sba(isamplesinfo
sample
p27
(dp28
g3
S'- inclusive samples nov10'
p29
sg5
g6
sg7
S'Zmm'
p30
sg9
g10
sg11
g6
sg12
(lp31
g14
asg15
g6
sg16
g17
sg18
F1.0
sg19
I4700
sg20
S'/scratch/nov10_inclusive/Z/sys'
p32
sg22
F0.0
sg23
g24
sg25
g26
sba(isamplesinfo
sample
p33
(dp34
g3
S'- inclusive samples nov10'
p35
sg5
g6
sg7
S'Zusdcg'
p36
sg9
g10
sg11
g6
sg12
(lp37
S'Nominal'
p38
aS'JER_up'
p39
aS'JER_down'
p40
aS'JES_up'
p41
aS'JES_down'
p42
aS'beff_up'
p43
aS'beff_down'
p44
aS'bmis_up'
p45
aS'bmis_down'
p46
asg15
g6
sg16
g17
sg18
F1.0
sg19
I4700
sg20
S'/scratch/nov10_inclusive/Z/sys'
p47
sg22
I3048
sg23
S'BKG'
p48
sg25
S'(Vtype == 0 || Vtype ==1) && EVENT.json'
p49
sba(isamplesinfo
sample
p50
(dp51
g3
S'- inclusive samples nov10'
p52
sg5
g6
sg7
S'Zusdcg_pt100'
p53
sg9
g10
sg11
g6
sg12
(lp54
g38
ag39
ag40
ag41
ag42
ag43
ag44
ag45
ag46
asg15
g6
sg16
g17
sg18
F1.0
sg19
I4700
sg20
S'/scratch/nov10_inclusive/Z/sys'
p55
sg22
I30
sg23
g48
sg25
g49
sba(isamplesinfo
sample
p56
(dp57
g3
S'- inclusive samples nov10'
p58
sg5
g6
sg7
S'Zbb'
p59
sg9
g10
sg11
g6
sg12
(lp60
g38
ag39
ag40
ag41
ag42
ag43
ag44
ag45
ag46
asg15
g6
sg16
g17
sg18
F1.0
sg19
I4700
sg20
S'/scratch/nov10_inclusive/Z/sys'
p61
sg22
I3048
sg23
g48
sg25
g49
sba(isamplesinfo
sample
p62
(dp63
g3
S'- inclusive samples nov10'
p64
sg5
g6
sg7
S'Zbb_pt100'
p65
sg9
g10
sg11
g6
sg12
(lp66
g38
ag39
ag40
ag41
ag42
ag43
ag44
ag45
ag46
asg15
g6
sg16
g17
sg18
F1.0
sg19
I4700
sg20
S'/scratch/nov10_inclusive/Z/sys'
p67
sg22
I30
sg23
g48
sg25
g49
sba(isamplesinfo
sample
p68
(dp69
g3
S'- inclusive samples nov10'
p70
sg5
g6
sg7
S'WW'
p71
sg9
g10
sg11
g6
sg12
(lp72
g38
ag39
ag40
ag41
ag42
ag43
ag44
ag45
ag46
asg15
g6
sg16
g17
sg18
F1.0
sg19
I4700
sg20
S'/scratch/nov10_inclusive/Z/sys'
p73
sg22
F42.9
sg23
g48
sg25
g49
sba(isamplesinfo
sample
p74
(dp75
g3
S'- inclusive samples nov10'
p76
sg5
g6
sg7
S'WZ'
p77
sg9
g10
sg11
g6
sg12
(lp78
g38
ag39
ag40
ag41
ag42
ag43
ag44
ag45
ag46
asg15
g6
sg16
g17
sg18
F1.0
sg19
I4700
sg20
S'/scratch/nov10_inclusive/Z/sys'
p79
sg22
F18.3
sg23
g48
sg25
g49
sba(isamplesinfo
sample
p80
(dp81
g3
S'- inclusive samples nov10'
p82
sg5
g6
sg7
S'ZZ'
p83
sg9
g10
sg11
g6
sg12
(lp84
g38
ag39
ag40
ag41
ag42
ag43
ag44
ag45
ag46
asg15
g6
sg16
g17
sg18
F1.0
sg19
I4700
sg20
S'/scratch/nov10_inclusive/Z/sys'
p85
sg22
F5.9
sg23
g48
sg25
g49
sba(isamplesinfo
sample
p86
(dp87
g3
S'- inclusive samples nov10'
p88
sg5
g6
sg7
S'TT'
p89
sg9
g10
sg11
g6
sg12
(lp90
g38
ag39
ag40
ag41
ag42
ag43
ag44
ag45
ag46
asg15
g6
sg16
g17
sg18
F1.0
sg19
I4700
sg20
S'/scratch/nov10_inclusive/Z/sys'
p91
sg22
I165
sg23
g48
sg25
g49
sba(isamplesinfo
sample
p92
(dp93
g3
S'- inclusive samples nov10'
p94
sg5
g6
sg7
S'ST_s'
p95
sg9
g10
sg11
g6
sg12
(lp96
g38
ag39
ag40
ag41
ag42
ag43
ag44
ag45
ag46
asg15
g6
sg16
g17
sg18
F1.0
sg19
I4700
sg20
S'/scratch/nov10_inclusive/Z/sys'
p97
sg22
F3.19
sg23
g48
sg25
g49
sba(isamplesinfo
sample
p98
(dp99
g3
S'- inclusive samples nov10'
p100
sg5
g6
sg7
S'ST_t'
p101
sg9
g10
sg11
g6
sg12
(lp102
g38
ag39
ag40
ag41
ag42
ag43
ag44
ag45
ag46
asg15
g6
sg16
g17
sg18
F1.0
sg19
I4700
sg20
S'/scratch/nov10_inclusive/Z/sys'
p103
sg22
F41.92
sg23
g48
sg25
g49
sba(isamplesinfo
sample
p104
(dp105
g3
S'- inclusive samples nov10'
p106
sg5
g6
sg7
S'ST_tW'
p107
sg9
g10
sg11
g6
sg12
(lp108
g38
ag39
ag40
ag41
ag42
ag43
ag44
ag45
ag46
asg15
g6
sg16
g17
sg18
F1.0
sg19
I4700
sg20
S'/scratch/nov10_inclusive/Z/sys'
p109
sg22
F7.87
sg23
g48
sg25
g49
sba(isamplesinfo
sample
p110
(dp111
g3
S'- inclusive samples nov10'
p112
sg5
g6
sg7
S'STbar_s'
p113
sg9
g10
sg11
g6
sg12
(lp114
g38
ag39
ag40
ag41
ag42
ag43
ag44
ag45
ag46
asg15
g6
sg16
g17
sg18
F1.0
sg19
I4700
sg20
S'/scratch/nov10_inclusive/Z/sys'
p115
sg22
F1.44
sg23
g48
sg25
g49
sba(isamplesinfo
sample
p116
(dp117
g3
S'- inclusive samples nov10'
p118
sg5
g6
sg7
S'STbar_t'
p119
sg9
g10
sg11
g6
sg12
(lp120
g38
ag39
ag40
ag41
ag42
ag43
ag44
ag45
ag46
asg15
g6
sg16
g17
sg18
F1.0
sg19
I4700
sg20
S'/scratch/nov10_inclusive/Z/sys'
p121
sg22
F22.65
sg23
g48
sg25
g49
sba(isamplesinfo
sample
p122
(dp123
g3
S'- inclusive samples nov10'
p124
sg5
g6
sg7
S'STbar_tW'
p125
sg9
g10
sg11
g6
sg12
(lp126
g38
ag39
ag40
ag41
ag42
ag43
ag44
ag45
ag46
asg15
g6
sg16
g17
sg18
F1.0
sg19
I4700
sg20
S'/scratch/nov10_inclusive/Z/sys'
p127
sg22
F7.87
sg23
g48
sg25
g49
sba(isamplesinfo
sample
p128
(dp129
g3
S'- inclusive samples nov10'
p130
sg5
g6
sg7
S'ZH110'
p131
sg9
g10
sg11
g6
sg12
(lp132
g38
ag39
ag40
ag41
ag42
ag43
ag44
ag45
ag46
asg15
g6
sg16
g17
sg18
F1.0
sg19
I4700
sg20
S'/scratch/nov10_inclusive/Z/sys'
p133
sg22
F0.035514019923
sg23
S'SIG'
p134
sg25
g49
sba(isamplesinfo
sample
p135
(dp136
g3
S'- inclusive samples nov10'
p137
sg5
g6
sg7
S'ZH115'
p138
sg9
g10
sg11
g6
sg12
(lp139
g38
ag39
ag40
ag41
ag42
ag43
ag44
ag45
ag46
asg15
g6
sg16
g17
sg18
F1.0
sg19
I4700
sg20
S'/scratch/nov10_inclusive/Z/sys'
p140
sg22
F0.029194895347199996
sg23
g134
sg25
g49
sba(isamplesinfo
sample
p141
(dp142
g3
S'- inclusive samples nov10'
p143
sg5
g6
sg7
S'ZH120'
p144
sg9
g10
sg11
g6
sg12
(lp145
g38
ag39
ag40
ag41
ag42
ag43
ag44
ag45
ag46
asg15
g6
sg16
g17
sg18
F1.0
sg19
I4700
sg20
S'/scratch/nov10_inclusive/Z/sys'
p146
sg22
F0.0235421284896
sg23
g134
sg25
g49
sba(isamplesinfo
sample
p147
(dp148
g3
S'- inclusive samples nov10'
p149
sg5
g6
sg7
S'ZH125'
p150
sg9
g10
sg11
g6
sg12
(lp151
g38
ag39
ag40
ag41
ag42
ag43
ag44
ag45
ag46
asg15
g6
sg16
g17
sg18
F1.0
sg19
I4700
sg20
S'/scratch/nov10_inclusive/Z/sys'
p152
sg22
F0.0183991389684
sg23
g134
sg25
g49
sba(isamplesinfo
sample
p153
(dp154
g3
S'- inclusive samples nov10'
p155
sg5
g6
sg7
S'ZH130'
p156
sg9
g10
sg11
g6
sg12
(lp157
g38
ag39
ag40
ag41
ag42
ag43
ag44
ag45
ag46
asg15
g6
sg16
g17
sg18
F1.0
sg19
I4700
sg20
S'/scratch/nov10_inclusive/Z/sys'
p158
sg22
F0.013828934559599998
sg23
g134
sg25
g49
sba(isamplesinfo
sample
p159
(dp160
g3
S'- inclusive samples nov10'
p161
sg5
g6
sg7
S'ZH135'
p162
sg9
g10
sg11
g6
sg12
(lp163
g38
ag39
ag40
ag41
ag42
ag43
ag44
ag45
ag46
asg15
g6
sg16
g17
sg18
F1.0
sg19
I4700
sg20
S'/scratch/nov10_inclusive/Z/sys'
p164
sg22
F0.0099818756466
sg23
g134
sg25
g49
sba.